target datalayout = "e-m:e-p270:32:32-p271:32:32-p272:64:64-i64:64-i128:128-f80:128-n8:16:32:64-S128"
target triple = "x86_64-pc-linux-gnu"

%"class.cv::AutoBuffer" = type { ptr, i64, [136 x double] }

; Function Attrs: inlinehint mustprogress nounwind uwtable
define linkonce_odr hidden void @_ZN2cv10AutoBufferIdLm136EE10deallocateEv(ptr noundef nonnull align 8 dereferenceable(1104) %0) #4 comdat align 2 {
  %2 = alloca ptr, align 8
  store ptr %0, ptr %2, align 8, !tbaa !19
  %3 = load ptr, ptr %2, align 8
  %4 = getelementptr inbounds nuw %"class.cv::AutoBuffer", ptr %3, i32 0, i32 0
  %5 = load ptr, ptr %4, align 8, !tbaa !23
  %6 = getelementptr inbounds nuw %"class.cv::AutoBuffer", ptr %3, i32 0, i32 2
  %7 = getelementptr inbounds [136 x double], ptr %6, i64 0, i64 0
  %8 = icmp ne ptr %5, %7
  br i1 %8, label %9, label %19

9:                                                ; preds = %1
  %10 = getelementptr inbounds nuw %"class.cv::AutoBuffer", ptr %3, i32 0, i32 0
  %11 = load ptr, ptr %10, align 8, !tbaa !23
  %12 = icmp eq ptr %11, null
  br i1 %12, label %14, label %13

13:                                               ; preds = %9
  call void @_ZdaPv(ptr noundef %11) #21
  br label %14

14:                                               ; preds = %13, %9
  %15 = getelementptr inbounds nuw %"class.cv::AutoBuffer", ptr %3, i32 0, i32 2
  %16 = getelementptr inbounds [136 x double], ptr %15, i64 0, i64 0
  %17 = getelementptr inbounds nuw %"class.cv::AutoBuffer", ptr %3, i32 0, i32 0
  store ptr %16, ptr %17, align 8, !tbaa !23
  %18 = getelementptr inbounds nuw %"class.cv::AutoBuffer", ptr %3, i32 0, i32 1
  store i64 136, ptr %18, align 8, !tbaa !25
  br label %19

19:                                               ; preds = %14, %1
  ret void
}

; Function Attrs: inlinehint mustprogress uwtable
define linkonce_odr hidden void @_ZN2cv10AutoBufferIdLm136EE8allocateEm(ptr noundef nonnull align 8 dereferenceable(1104) %0, i64 noundef %1) #3 comdat align 2 {
  %3 = alloca ptr, align 8
  %4 = alloca i64, align 8
  store ptr %0, ptr %3, align 8, !tbaa !19
  store i64 %1, ptr %4, align 8, !tbaa !21
  %5 = load ptr, ptr %3, align 8
  %6 = load i64, ptr %4, align 8, !tbaa !21
  %7 = getelementptr inbounds nuw %"class.cv::AutoBuffer", ptr %5, i32 0, i32 1
  %8 = load i64, ptr %7, align 8, !tbaa !25
  %9 = icmp ule i64 %6, %8
  br i1 %9, label %10, label %13

10:                                               ; preds = %2
  %11 = load i64, ptr %4, align 8, !tbaa !21
  %12 = getelementptr inbounds nuw %"class.cv::AutoBuffer", ptr %5, i32 0, i32 1
  store i64 %11, ptr %12, align 8, !tbaa !25
  br label %26

13:                                               ; preds = %2
  call void @_ZN2cv10AutoBufferIdLm136EE10deallocateEv(ptr noundef nonnull align 8 dereferenceable(1104) %5)
  %14 = load i64, ptr %4, align 8, !tbaa !21
  %15 = getelementptr inbounds nuw %"class.cv::AutoBuffer", ptr %5, i32 0, i32 1
  store i64 %14, ptr %15, align 8, !tbaa !25
  %16 = load i64, ptr %4, align 8, !tbaa !21
  %17 = icmp ugt i64 %16, 136
  br i1 %17, label %18, label %26

18:                                               ; preds = %13
  %19 = load i64, ptr %4, align 8, !tbaa !21
  %20 = call { i64, i1 } @llvm.umul.with.overflow.i64(i64 %19, i64 8)
  %21 = extractvalue { i64, i1 } %20, 1
  %22 = extractvalue { i64, i1 } %20, 0
  %23 = select i1 %21, i64 -1, i64 %22
  %24 = call noalias noundef nonnull ptr @_Znam(i64 noundef %23) #22
  %25 = getelementptr inbounds nuw %"class.cv::AutoBuffer", ptr %5, i32 0, i32 0
  store ptr %24, ptr %25, align 8, !tbaa !23
  br label %26

26:                                               ; preds = %10, %18, %13
  ret void
}

; Function Attrs: inlinehint mustprogress nounwind uwtable
define linkonce_odr hidden void @_ZN2cv10AutoBufferIdLm136EED2Ev(ptr noundef nonnull align 8 dereferenceable(1104) %0) unnamed_addr #4 comdat align 2 {
  %2 = alloca ptr, align 8
  store ptr %0, ptr %2, align 8, !tbaa !19
  %3 = load ptr, ptr %2, align 8
  call void @_ZN2cv10AutoBufferIdLm136EE10deallocateEv(ptr noundef nonnull align 8 dereferenceable(1104) %3)
  ret void
}

; Function Attrs: inlinehint mustprogress nounwind uwtable
define linkonce_odr hidden noundef ptr @_ZN2cv10AutoBufferIdLm136EE4dataEv(ptr noundef nonnull align 8 dereferenceable(1104) %0) #4 comdat align 2 {
  %2 = alloca ptr, align 8
  store ptr %0, ptr %2, align 8, !tbaa !19
  %3 = load ptr, ptr %2, align 8
  %4 = getelementptr inbounds nuw %"class.cv::AutoBuffer", ptr %3, i32 0, i32 0
  %5 = load ptr, ptr %4, align 8, !tbaa !23
  ret ptr %5
}

; Function Attrs: inlinehint mustprogress uwtable
define linkonce_odr hidden void @_ZN2cv10AutoBufferIdLm136EEC2Em(ptr noundef nonnull align 8 dereferenceable(1104) %0, i64 noundef %1) unnamed_addr #3 comdat align 2 {
  %3 = alloca ptr, align 8
  %4 = alloca i64, align 8
  store ptr %0, ptr %3, align 8, !tbaa !19
  store i64 %1, ptr %4, align 8, !tbaa !21
  %5 = load ptr, ptr %3, align 8
  %6 = getelementptr inbounds nuw %"class.cv::AutoBuffer", ptr %5, i32 0, i32 2
  %7 = getelementptr inbounds [136 x double], ptr %6, i64 0, i64 0
  %8 = getelementptr inbounds nuw %"class.cv::AutoBuffer", ptr %5, i32 0, i32 0
  store ptr %7, ptr %8, align 8, !tbaa !23
  %9 = getelementptr inbounds nuw %"class.cv::AutoBuffer", ptr %5, i32 0, i32 1
  store i64 136, ptr %9, align 8, !tbaa !25
  %10 = load i64, ptr %4, align 8, !tbaa !21
  call void @_ZN2cv10AutoBufferIdLm136EE8allocateEm(ptr noundef nonnull align 8 dereferenceable(1104) %5, i64 noundef %10)
  ret void
}

; Function Attrs: mustprogress uwtable
define void @_ZN2cv16MinProblemSolver8Function11getGradientEPKdPd(ptr noundef nonnull align 8 dereferenceable(8) %0, ptr noundef %1, ptr noundef %2) unnamed_addr #1 align 2 personality ptr @__gxx_personality_v0 {
  %4 = alloca ptr, align 8
  %5 = alloca ptr, align 8
  %6 = alloca ptr, align 8
  %7 = alloca double, align 8
  %8 = alloca i32, align 4
  %9 = alloca i32, align 4
  %10 = alloca %"class.cv::AutoBuffer", align 8
  %11 = alloca ptr, align 8
  %12 = alloca ptr, align 8
  %13 = alloca i32, align 4
  %14 = alloca double, align 8
  %15 = alloca double, align 8
  store ptr %0, ptr %4, align 8, !tbaa !3
  store ptr %1, ptr %5, align 8, !tbaa !8
  store ptr %2, ptr %6, align 8, !tbaa !8
  %16 = load ptr, ptr %4, align 8
  call void @llvm.lifetime.start.p0(i64 8, ptr %7) #18
  %17 = load ptr, ptr %16, align 8, !tbaa !10
  %18 = getelementptr inbounds ptr, ptr %17, i64 3
  %19 = load ptr, ptr %18, align 8
  %20 = call noundef double %19(ptr noundef nonnull align 8 dereferenceable(8) %16)
  store double %20, ptr %7, align 8, !tbaa !12
  call void @llvm.lifetime.start.p0(i64 4, ptr %8) #18
  call void @llvm.lifetime.start.p0(i64 4, ptr %9) #18
  %21 = load ptr, ptr %16, align 8, !tbaa !10
  %22 = getelementptr inbounds ptr, ptr %21, i64 2
  %23 = load ptr, ptr %22, align 8
  %24 = call noundef i32 %23(ptr noundef nonnull align 8 dereferenceable(8) %16)
  store i32 %24, ptr %9, align 4, !tbaa !14
  call void @llvm.lifetime.start.p0(i64 1104, ptr %10) #18
  %25 = load i32, ptr %9, align 4, !tbaa !14
  %26 = sext i32 %25 to i64
  call void @_ZN2cv10AutoBufferIdLm136EEC2Em(ptr noundef nonnull align 8 dereferenceable(1104) %10, i64 noundef %26)
  call void @llvm.lifetime.start.p0(i64 8, ptr %11) #18
  %27 = invoke noundef ptr @_ZN2cv10AutoBufferIdLm136EE4dataEv(ptr noundef nonnull align 8 dereferenceable(1104) %10)
          to label %28 unwind label %46

28:                                               ; preds = %3
  store ptr %27, ptr %11, align 8, !tbaa !8
  store i32 0, ptr %8, align 4, !tbaa !14
  br label %29

29:                                               ; preds = %43, %28
  %30 = load i32, ptr %8, align 4, !tbaa !14
  %31 = load i32, ptr %9, align 4, !tbaa !14
  %32 = icmp slt i32 %30, %31
  br i1 %32, label %33, label %50

33:                                               ; preds = %29
  %34 = load ptr, ptr %5, align 8, !tbaa !8
  %35 = load i32, ptr %8, align 4, !tbaa !14
  %36 = sext i32 %35 to i64
  %37 = getelementptr inbounds double, ptr %34, i64 %36
  %38 = load double, ptr %37, align 8, !tbaa !12
  %39 = load ptr, ptr %11, align 8, !tbaa !8
  %40 = load i32, ptr %8, align 4, !tbaa !14
  %41 = sext i32 %40 to i64
  %42 = getelementptr inbounds double, ptr %39, i64 %41
  store double %38, ptr %42, align 8, !tbaa !12
  br label %43

43:                                               ; preds = %33
  %44 = load i32, ptr %8, align 4, !tbaa !14
  %45 = add nsw i32 %44, 1
  store i32 %45, ptr %8, align 4, !tbaa !14
  br label %29, !llvm.loop !16

46:                                               ; preds = %3
  %47 = landingpad { ptr, i32 }
          cleanup
  %48 = extractvalue { ptr, i32 } %47, 0
  store ptr %48, ptr %12, align 8
  %49 = extractvalue { ptr, i32 } %47, 1
  store i32 %49, ptr %13, align 4
  br label %122

50:                                               ; preds = %29
  store i32 0, ptr %8, align 4, !tbaa !14
  br label %51

51:                                               ; preds = %109, %50
  %52 = load i32, ptr %8, align 4, !tbaa !14
  %53 = load i32, ptr %9, align 4, !tbaa !14
  %54 = icmp slt i32 %52, %53
  br i1 %54, label %55, label %121

55:                                               ; preds = %51
  %56 = load ptr, ptr %5, align 8, !tbaa !8
  %57 = load i32, ptr %8, align 4, !tbaa !14
  %58 = sext i32 %57 to i64
  %59 = getelementptr inbounds double, ptr %56, i64 %58
  %60 = load double, ptr %59, align 8, !tbaa !12
  %61 = load double, ptr %7, align 8, !tbaa !12
  %62 = fadd double %60, %61
  %63 = load ptr, ptr %11, align 8, !tbaa !8
  %64 = load i32, ptr %8, align 4, !tbaa !14
  %65 = sext i32 %64 to i64
  %66 = getelementptr inbounds double, ptr %63, i64 %65
  store double %62, ptr %66, align 8, !tbaa !12
  call void @llvm.lifetime.start.p0(i64 8, ptr %14) #18
  %67 = load ptr, ptr %11, align 8, !tbaa !8
  %68 = load ptr, ptr %16, align 8, !tbaa !10
  %69 = getelementptr inbounds ptr, ptr %68, i64 4
  %70 = load ptr, ptr %69, align 8
  %71 = invoke noundef double %70(ptr noundef nonnull align 8 dereferenceable(8) %16, ptr noundef %67)
          to label %72 unwind label %112

72:                                               ; preds = %55
  store double %71, ptr %14, align 8, !tbaa !12
  %73 = load ptr, ptr %5, align 8, !tbaa !8
  %74 = load i32, ptr %8, align 4, !tbaa !14
  %75 = sext i32 %74 to i64
  %76 = getelementptr inbounds double, ptr %73, i64 %75
  %77 = load double, ptr %76, align 8, !tbaa !12
  %78 = load double, ptr %7, align 8, !tbaa !12
  %79 = fsub double %77, %78
  %80 = load ptr, ptr %11, align 8, !tbaa !8
  %81 = load i32, ptr %8, align 4, !tbaa !14
  %82 = sext i32 %81 to i64
  %83 = getelementptr inbounds double, ptr %80, i64 %82
  store double %79, ptr %83, align 8, !tbaa !12
  call void @llvm.lifetime.start.p0(i64 8, ptr %15) #18
  %84 = load ptr, ptr %11, align 8, !tbaa !8
  %85 = load ptr, ptr %16, align 8, !tbaa !10
  %86 = getelementptr inbounds ptr, ptr %85, i64 4
  %87 = load ptr, ptr %86, align 8
  %88 = invoke noundef double %87(ptr noundef nonnull align 8 dereferenceable(8) %16, ptr noundef %84)
          to label %89 unwind label %116

89:                                               ; preds = %72
  store double %88, ptr %15, align 8, !tbaa !12
  %90 = load double, ptr %14, align 8, !tbaa !12
  %91 = load double, ptr %15, align 8, !tbaa !12
  %92 = fsub double %90, %91
  %93 = load double, ptr %7, align 8, !tbaa !12
  %94 = fmul double 2.000000e+00, %93
  %95 = fdiv double %92, %94
  %96 = load ptr, ptr %6, align 8, !tbaa !8
  %97 = load i32, ptr %8, align 4, !tbaa !14
  %98 = sext i32 %97 to i64
  %99 = getelementptr inbounds double, ptr %96, i64 %98
  store double %95, ptr %99, align 8, !tbaa !12
  %100 = load ptr, ptr %5, align 8, !tbaa !8
  %101 = load i32, ptr %8, align 4, !tbaa !14
  %102 = sext i32 %101 to i64
  %103 = getelementptr inbounds double, ptr %100, i64 %102
  %104 = load double, ptr %103, align 8, !tbaa !12
  %105 = load ptr, ptr %11, align 8, !tbaa !8
  %106 = load i32, ptr %8, align 4, !tbaa !14
  %107 = sext i32 %106 to i64
  %108 = getelementptr inbounds double, ptr %105, i64 %107
  store double %104, ptr %108, align 8, !tbaa !12
  call void @llvm.lifetime.end.p0(i64 8, ptr %15) #18
  call void @llvm.lifetime.end.p0(i64 8, ptr %14) #18
  br label %109

109:                                              ; preds = %89
  %110 = load i32, ptr %8, align 4, !tbaa !14
  %111 = add nsw i32 %110, 1
  store i32 %111, ptr %8, align 4, !tbaa !14
  br label %51, !llvm.loop !18

112:                                              ; preds = %55
  %113 = landingpad { ptr, i32 }
          cleanup
  %114 = extractvalue { ptr, i32 } %113, 0
  store ptr %114, ptr %12, align 8
  %115 = extractvalue { ptr, i32 } %113, 1
  store i32 %115, ptr %13, align 4
  br label %120

116:                                              ; preds = %72
  %117 = landingpad { ptr, i32 }
          cleanup
  %118 = extractvalue { ptr, i32 } %117, 0
  store ptr %118, ptr %12, align 8
  %119 = extractvalue { ptr, i32 } %117, 1
  store i32 %119, ptr %13, align 4
  call void @llvm.lifetime.end.p0(i64 8, ptr %15) #18
  br label %120

120:                                              ; preds = %116, %112
  call void @llvm.lifetime.end.p0(i64 8, ptr %14) #18
  br label %122

121:                                              ; preds = %51
  call void @llvm.lifetime.end.p0(i64 8, ptr %11) #18
  call void @_ZN2cv10AutoBufferIdLm136EED2Ev(ptr noundef nonnull align 8 dereferenceable(1104) %10) #18
  call void @llvm.lifetime.end.p0(i64 1104, ptr %10) #18
  call void @llvm.lifetime.end.p0(i64 4, ptr %9) #18
  call void @llvm.lifetime.end.p0(i64 4, ptr %8) #18
  call void @llvm.lifetime.end.p0(i64 8, ptr %7) #18
  ret void

122:                                              ; preds = %120, %46
  call void @llvm.lifetime.end.p0(i64 8, ptr %11) #18
  call void @_ZN2cv10AutoBufferIdLm136EED2Ev(ptr noundef nonnull align 8 dereferenceable(1104) %10) #18
  call void @llvm.lifetime.end.p0(i64 1104, ptr %10) #18
  call void @llvm.lifetime.end.p0(i64 4, ptr %9) #18
  call void @llvm.lifetime.end.p0(i64 4, ptr %8) #18
  call void @llvm.lifetime.end.p0(i64 8, ptr %7) #18
  br label %123

123:                                              ; preds = %122
  %124 = load ptr, ptr %12, align 8
  %125 = load i32, ptr %13, align 4
  %126 = insertvalue { ptr, i32 } poison, ptr %124, 0
  %127 = insertvalue { ptr, i32 } %126, i32 %125, 1
  resume { ptr, i32 } %127
}