; Function Attrs: mustprogress uwtable
define void @_ZN2cv16MinProblemSolver8Function11getGradientEPKdPd(ptr noundef nonnull align 8 dereferenceable(8) %0, ptr noundef readonly captures(none) %1, ptr noundef writeonly captures(none) %2) unnamed_addr #1 align 2 personality ptr @__gxx_personality_v0 {
  %4 = alloca %"class.cv::AutoBuffer", align 8
  %5 = load ptr, ptr %0, align 8, !tbaa !3
  %6 = getelementptr inbounds nuw i8, ptr %5, i64 24
  %7 = load ptr, ptr %6, align 8
  %8 = tail call noundef double %7(ptr noundef nonnull align 8 dereferenceable(8) %0)
  %9 = load ptr, ptr %0, align 8, !tbaa !3
  %10 = getelementptr inbounds nuw i8, ptr %9, i64 16
  %11 = load ptr, ptr %10, align 8
  %12 = tail call noundef i32 %11(ptr noundef nonnull align 8 dereferenceable(8) %0)
  call void @llvm.lifetime.start.p0(i64 1104, ptr nonnull %4) #20
  %13 = sext i32 %12 to i64
  %14 = getelementptr inbounds nuw i8, ptr %4, i64 16
  store ptr %14, ptr %4, align 8, !tbaa !6
  %15 = getelementptr inbounds nuw i8, ptr %4, i64 8
  %.not.i.i = icmp ugt i32 %12, 136
  store i64 %13, ptr %15, align 8, !tbaa !12
  br i1 %.not.i.i, label %16, label %_ZN2cv10AutoBufferIdLm136EEC2Em.exit

16:                                               ; preds = %3
  %17 = icmp slt i32 %12, 0
  %18 = shl nuw nsw i64 %13, 3
  %19 = select i1 %17, i64 -1, i64 %18
  %20 = call noalias noundef nonnull ptr @_Znam(i64 noundef %19) #21
  store ptr %20, ptr %4, align 8, !tbaa !6
  br label %_ZN2cv10AutoBufferIdLm136EEC2Em.exit

_ZN2cv10AutoBufferIdLm136EEC2Em.exit:             ; preds = %3, %16
  %21 = phi ptr [ %14, %3 ], [ %20, %16 ]
  %22 = icmp sgt i32 %12, 0
  br i1 %22, label %.lr.ph.preheader, label %._crit_edge

.lr.ph.preheader:                                 ; preds = %_ZN2cv10AutoBufferIdLm136EEC2Em.exit
  %wide.trip.count = zext nneg i32 %12 to i64
  br label %.lr.ph

.lr.ph43:                                         ; preds = %.lr.ph
  %23 = fmul double %8, 2.000000e+00
  %wide.trip.count48 = zext nneg i32 %12 to i64
  br label %27

.lr.ph:                                           ; preds = %.lr.ph.preheader, %.lr.ph
  %indvars.iv = phi i64 [ 0, %.lr.ph.preheader ], [ %indvars.iv.next, %.lr.ph ]
  %24 = getelementptr inbounds nuw double, ptr %1, i64 %indvars.iv
  %25 = load double, ptr %24, align 8, !tbaa !13
  %26 = getelementptr inbounds nuw double, ptr %21, i64 %indvars.iv
  store double %25, ptr %26, align 8, !tbaa !13
  %indvars.iv.next = add nuw nsw i64 %indvars.iv, 1
  %exitcond.not = icmp eq i64 %indvars.iv.next, %wide.trip.count
  br i1 %exitcond.not, label %.lr.ph43, label %.lr.ph, !llvm.loop !15

27:                                               ; preds = %.lr.ph43, %43
  %indvars.iv45 = phi i64 [ 0, %.lr.ph43 ], [ %indvars.iv.next46, %43 ]
  %28 = getelementptr inbounds nuw double, ptr %1, i64 %indvars.iv45
  %29 = load double, ptr %28, align 8, !tbaa !13
  %30 = fadd double %8, %29
  %31 = getelementptr inbounds nuw double, ptr %21, i64 %indvars.iv45
  store double %30, ptr %31, align 8, !tbaa !13
  %32 = load ptr, ptr %0, align 8, !tbaa !3
  %33 = getelementptr inbounds nuw i8, ptr %32, i64 32
  %34 = load ptr, ptr %33, align 8
  %35 = invoke noundef double %34(ptr noundef nonnull align 8 dereferenceable(8) %0, ptr noundef nonnull %21)
          to label %36 unwind label %48

36:                                               ; preds = %27
  %37 = load double, ptr %28, align 8, !tbaa !13
  %38 = fsub double %37, %8
  store double %38, ptr %31, align 8, !tbaa !13
  %39 = load ptr, ptr %0, align 8, !tbaa !3
  %40 = getelementptr inbounds nuw i8, ptr %39, i64 32
  %41 = load ptr, ptr %40, align 8
  %42 = invoke noundef double %41(ptr noundef nonnull align 8 dereferenceable(8) %0, ptr noundef nonnull %21)
          to label %43 unwind label %50

43:                                               ; preds = %36
  %44 = fsub double %35, %42
  %45 = fdiv double %44, %23
  %46 = getelementptr inbounds nuw double, ptr %2, i64 %indvars.iv45
  store double %45, ptr %46, align 8, !tbaa !13
  %47 = load double, ptr %28, align 8, !tbaa !13
  store double %47, ptr %31, align 8, !tbaa !13
  %indvars.iv.next46 = add nuw nsw i64 %indvars.iv45, 1
  %exitcond49.not = icmp eq i64 %indvars.iv.next46, %wide.trip.count48
  br i1 %exitcond49.not, label %._crit_edge.loopexit, label %27, !llvm.loop !17

48:                                               ; preds = %27
  %49 = landingpad { ptr, i32 }
          cleanup
  br label %52

50:                                               ; preds = %36
  %51 = landingpad { ptr, i32 }
          cleanup
  br label %52

52:                                               ; preds = %50, %48
  %.pn = phi { ptr, i32 } [ %51, %50 ], [ %49, %48 ]
  %53 = load ptr, ptr %4, align 8, !tbaa !6
  %.not.i.i38 = icmp eq ptr %53, %14
  %54 = icmp eq ptr %53, null
  %or.cond = or i1 %.not.i.i38, %54
  br i1 %or.cond, label %_ZN2cv10AutoBufferIdLm136EED2Ev.exit, label %55

55:                                               ; preds = %52
  call void @_ZdaPv(ptr noundef nonnull %53) #22
  br label %_ZN2cv10AutoBufferIdLm136EED2Ev.exit

_ZN2cv10AutoBufferIdLm136EED2Ev.exit:             ; preds = %55, %52
  call void @llvm.lifetime.end.p0(i64 1104, ptr nonnull %4) #20
  resume { ptr, i32 } %.pn

._crit_edge.loopexit:                             ; preds = %43
  %.pre = load ptr, ptr %4, align 8, !tbaa !6
  br label %._crit_edge

._crit_edge:                                      ; preds = %_ZN2cv10AutoBufferIdLm136EEC2Em.exit, %._crit_edge.loopexit
  %56 = phi ptr [ %.pre, %._crit_edge.loopexit ], [ %21, %_ZN2cv10AutoBufferIdLm136EEC2Em.exit ]
  %.not.i.i39 = icmp eq ptr %56, %14
  %57 = icmp eq ptr %56, null
  %or.cond50 = or i1 %.not.i.i39, %57
  br i1 %or.cond50, label %_ZN2cv10AutoBufferIdLm136EED2Ev.exit40, label %58

58:                                               ; preds = %._crit_edge
  call void @_ZdaPv(ptr noundef nonnull %56) #22
  br label %_ZN2cv10AutoBufferIdLm136EED2Ev.exit40

_ZN2cv10AutoBufferIdLm136EED2Ev.exit40:           ; preds = %58, %._crit_edge
  call void @llvm.lifetime.end.p0(i64 1104, ptr nonnull %4) #20
  ret void
}